; Function Attrs: nounwind uwtable
define ptr @l_Lean_PersistentEnvExtension_findStateAsync___rarg(ptr noundef %0, ptr noundef readonly captures(none) %1, ptr noundef %2, ptr noundef %3) local_unnamed_addr #1 {
  %5 = load ptr, ptr @l_Lean_EnvExtension_initFn____x40_Lean_Environment___hyg_6645____closed__1, align 8, !tbaa !9
  tail call void @lean_inc_heartbeat() #10
  %6 = tail call noalias ptr @mi_malloc_small(i64 noundef 24) #10
  %7 = icmp eq ptr %6, null
  br i1 %7, label %8, label %l_Lean_instInhabitedPersistentEnvExtensionState___rarg.exit

8:                                                ; preds = %4
  tail call void @lean_internal_panic_out_of_memory() #11
  unreachable

l_Lean_instInhabitedPersistentEnvExtensionState___rarg.exit: ; preds = %4
  %9 = getelementptr inbounds nuw i8, ptr %6, i64 4
  store i32 1, ptr %6, align 4, !tbaa !4
  store i32 131096, ptr %9, align 4
  %10 = getelementptr inbounds nuw i8, ptr %6, i64 8
  store ptr %5, ptr %10, align 8, !tbaa !9
  %11 = getelementptr inbounds nuw i8, ptr %6, i64 16
  store ptr %0, ptr %11, align 8, !tbaa !9
  %12 = getelementptr inbounds nuw i8, ptr %1, i64 8
  %13 = load ptr, ptr %12, align 8, !tbaa !9
  %14 = tail call ptr @l___private_Lean_Environment_0__Lean_EnvExtension_findStateAsyncUnsafe___rarg(ptr noundef nonnull %6, ptr noundef %13, ptr noundef %2, ptr noundef %3)
  %15 = getelementptr inbounds nuw i8, ptr %14, i64 16
  %16 = load ptr, ptr %15, align 8, !tbaa !9
  %17 = ptrtoint ptr %16 to i64
  %18 = and i64 %17, 1
  %.not = icmp eq i64 %18, 0
  br i1 %.not, label %19, label %lean_inc.exit

19:                                               ; preds = %l_Lean_instInhabitedPersistentEnvExtensionState___rarg.exit
  %.val.i = load i32, ptr %16, align 4, !tbaa !4
  %20 = icmp sgt i32 %.val.i, 0
  br i1 %20, label %21, label %23, !prof !11

21:                                               ; preds = %19
  %22 = add nuw i32 %.val.i, 1
  store i32 %22, ptr %16, align 4, !tbaa !4
  br label %lean_inc.exit

23:                                               ; preds = %19
  %.not.i10 = icmp eq i32 %.val.i, 0
  br i1 %.not.i10, label %lean_inc.exit, label %24

24:                                               ; preds = %23
  tail call void @lean_inc_ref_cold(ptr noundef nonnull %16) #10
  br label %lean_inc.exit

lean_inc.exit:                                    ; preds = %24, %23, %21, %l_Lean_instInhabitedPersistentEnvExtensionState___rarg.exit
  %25 = ptrtoint ptr %14 to i64
  %26 = and i64 %25, 1
  %.not11 = icmp eq i64 %26, 0
  br i1 %.not11, label %27, label %lean_dec.exit

27:                                               ; preds = %lean_inc.exit
  %28 = load i32, ptr %14, align 4, !tbaa !4
  %29 = icmp sgt i32 %28, 1
  br i1 %29, label %30, label %32, !prof !11

30:                                               ; preds = %27
  %31 = add nsw i32 %28, -1
  store i32 %31, ptr %14, align 4, !tbaa !4
  br label %lean_dec.exit

32:                                               ; preds = %27
  %.not.i = icmp eq i32 %28, 0
  br i1 %.not.i, label %lean_dec.exit, label %33

33:                                               ; preds = %32
  tail call void @lean_dec_ref_cold(ptr noundef nonnull %14) #10
  br label %lean_dec.exit

lean_dec.exit:                                    ; preds = %33, %32, %30, %lean_inc.exit
  ret ptr %16
}